Certificate:
    Data:
        Version: 3 (0x2)
        Serial Number: 6 (0x6)
        Signature Algorithm: md5WithRSAEncryption
        Issuer: C=NL, O=PolarSSL, CN=PolarSSL Test CA
        Validity
            Not Before: Sep 30 12:26:57 2010 GMT
            Not After : Sep 29 12:26:57 2012 GMT
        Subject: C=NL, O=PolarSSL, CN=PolarSSL Cert MD5
        Subject Public Key Info:
            Public Key Algorithm: rsaEncryption
            RSA Public Key: (2048 bit)
                Modulus (2048 bit):
                    00:bf:ef:c0:a2:bc:af:9b:b7:77:f7:12:be:bc:4e:
                    1b:f5:20:79:7d:40:37:ac:3a:b0:fd:49:a3:86:f3:
                    fc:7b:14:fb:a5:6e:84:71:0e:7f:1a:32:44:75:e6:
                    99:ed:13:d6:5c:bb:12:f3:2f:e0:0d:0d:c7:67:7a:
                    81:51:53:91:d3:9f:d2:61:ab:b0:bd:de:04:22:25:
                    d7:fb:71:86:f0:ff:18:dc:ad:b7:6d:0e:5e:ac:a2:
                    4e:78:4d:2d:5e:9c:4c:7a:7a:fe:d2:d6:b9:2f:e6:
                    db:da:6d:10:79:ca:58:8a:9e:02:b0:c8:18:83:c4:
                    9c:50:6f:af:b9:92:a5:38:4b:b3:dd:ef:d8:ec:a3:
                    ef:e2:ea:39:85:a6:3c:2d:64:8e:c8:24:13:90:c9:
                    ca:23:f1:03:e7:14:ca:da:99:fb:13:f3:04:20:31:
                    06:42:5d:fc:9e:4f:de:af:d1:75:73:27:1d:01:9e:
                    6d:58:e5:b7:01:bd:76:26:84:e0:9e:f2:db:1a:80:
                    17:b4:63:2e:8a:1e:69:0c:84:7b:73:95:43:85:d3:
                    56:6b:5a:b7:fc:4a:7b:f8:c1:59:f1:7c:dd:3b:62:
                    62:22:8d:10:ad:2a:f0:69:a9:e0:b9:f4:0d:9e:26:
                    05:09:5a:12:24:6b:20:be:ef:e4:ee:0c:a8:3e:49:
                    69:4b
                Exponent: 65537 (0x10001)
        X509v3 extensions:
            X509v3 Basic Constraints: 
                CA:FALSE
            X509v3 Subject Key Identifier: 
                59:57:9D:AF:64:3F:CF:CD:2C:96:58:08:7E:04:60:58:A5:1E:37:E6
            X509v3 Authority Key Identifier: 
                keyid:29:FB:13:06:D3:CF:99:CA:E1:6E:CD:A7:58:9E:D4:94:60:9D:9F:32

    Signature Algorithm: md5WithRSAEncryption
        a2:53:a8:00:4f:18:92:3f:e2:4e:26:29:eb:f3:23:05:61:1d:
        8e:69:74:60:82:5f:e4:b6:c1:52:e7:e8:52:4f:e8:b8:21:4f:
        3d:13:08:f9:98:08:81:f0:65:cb:72:ea:34:e9:96:95:d5:30:
        89:c9:4b:a8:41:8d:74:5a:40:69:7e:3d:c8:d6:bb:05:9f:7e:
        b0:80:4e:16:a1:61:b7:25:79:b9:9a:fb:ce:bc:9b:c6:33:7b:
        cb:29:4b:02:1e:ce:33:7d:4f:d4:bf:a0:d5:7b:ee:87:7f:00:
        57:6a:75:6f:63:9f:f6:51:a8:4f:36:08:9e:18:2e:81:3a:79:
        87:6d:3b:a7:4b:ac:63:c2:07:f0:cb:6b:35:29:19:96:af:f7:
        2d:bc:1f:14:e8:51:09:67:dc:e4:6a:a9:9c:c7:e4:3d:57:49:
        17:83:35:8a:aa:89:d5:9b:45:eb:f5:0e:e6:39:fe:f1:16:89:
        f0:f6:20:69:c4:61:f5:e7:ca:24:bc:c7:7c:bd:4f:c1:d6:f9:
        7a:ba:50:cf:57:f6:62:83:15:e6:42:e2:15:13:e6:16:51:cc:
        1b:45:3d:0a:cf:6a:83:5e:a7:e6:6a:72:f8:73:1b:4d:5b:1f:
        1f:6e:1b:54:c3:c2:40:a9:20:68:69:a1:08:53:77:19:37:cb:
        c3:16:22:a5
-----BEGIN CERTIFICATE-----
MIIDPzCCAiegAwIBAgIBBjANBgkqhkiG9w0BAQQFADA7MQswCQYDVQQGEwJOTDER
MA8GA1UEChMIUG9sYXJTU0wxGTAXBgNVBAMTEFBvbGFyU1NMIFRlc3QgQ0EwHhcN
MTAwOTMwMTIyNjU3WhcNMTIwOTI5MTIyNjU3WjA8MQswCQYDVQQGEwJOTDERMA8G
A1UEChMIUG9sYXJTU0wxGjAYBgNVBAMTEVBvbGFyU1NMIENlcnQgTUQ1MIIBIjAN
BgkqhkiG9w0BAQEFAAOCAQ8AMIIBCgKCAQEAv+/Aoryvm7d39xK+vE4b9SB5fUA3
rDqw/UmjhvP8exT7pW6EcQ5/GjJEdeaZ7RPWXLsS8y/gDQ3HZ3qBUVOR05/SYauw
vd4EIiXX+3GG8P8Y3K23bQ5erKJOeE0tXpxMenr+0ta5L+bb2m0QecpYip4CsMgY
g8ScUG+vuZKlOEuz3e/Y7KPv4uo5haY8LWSOyCQTkMnKI/ED5xTK2pn7E/MEIDEG
Ql38nk/er9F1cycdAZ5tWOW3Ab12JoTgnvLbGoAXtGMuih5pDIR7c5VDhdNWa1q3
/Ep7+MFZ8XzdO2JiIo0QrSrwaangufQNniYFCVoSJGsgvu/k7gyoPklpSwIDAQAB
o00wSzAJBgNVHRMEAjAAMB0GA1UdDgQWBBRZV52vZD/PzSyWWAh+BGBYpR435jAf
BgNVHSMEGDAWgBQp+xMG08+ZyuFuzadYntSUYJ2fMjANBgkqhkiG9w0BAQQFAAOC
AQEAolOoAE8Ykj/iTiYp6/MjBWEdjml0YIJf5LbBUufoUk/ouCFPPRMI+ZgIgfBl
y3LqNOmWldUwiclLqEGNdFpAaX49yNa7BZ9+sIBOFqFhtyV5uZr7zrybxjN7yylL
Ah7OM31P1L+g1Xvuh38AV2p1b2Of9lGoTzYInhgugTp5h207p0usY8IH8MtrNSkZ
lq/3LbwfFOhRCWfc5GqpnMfkPVdJF4M1iqqJ1ZtF6/UO5jn+8RaJ8PYgacRh9efK
JLzHfL1Pwdb5erpQz1f2YoMV5kLiFRPmFlHMG0U9Cs9qg16n5mpy+HMbTVsfH24b
VMPCQKkgaGmhCFN3GTfLwxYipQ==
-----END CERTIFICATE-----
