Certificate:
    Data:
        Version: 3 (0x2)
        Serial Number: 11 (0xb)
        Signature Algorithm: sha512WithRSAEncryption
        Issuer: C=NL, O=PolarSSL, CN=PolarSSL Test CA
        Validity
            Not Before: Sep 30 12:26:57 2010 GMT
            Not After : Sep 29 12:26:57 2012 GMT
        Subject: C=NL, O=PolarSSL, CN=PolarSSL Cert SHA512
        Subject Public Key Info:
            Public Key Algorithm: rsaEncryption
            RSA Public Key: (2048 bit)
                Modulus (2048 bit):
                    00:bf:ef:c0:a2:bc:af:9b:b7:77:f7:12:be:bc:4e:
                    1b:f5:20:79:7d:40:37:ac:3a:b0:fd:49:a3:86:f3:
                    fc:7b:14:fb:a5:6e:84:71:0e:7f:1a:32:44:75:e6:
                    99:ed:13:d6:5c:bb:12:f3:2f:e0:0d:0d:c7:67:7a:
                    81:51:53:91:d3:9f:d2:61:ab:b0:bd:de:04:22:25:
                    d7:fb:71:86:f0:ff:18:dc:ad:b7:6d:0e:5e:ac:a2:
                    4e:78:4d:2d:5e:9c:4c:7a:7a:fe:d2:d6:b9:2f:e6:
                    db:da:6d:10:79:ca:58:8a:9e:02:b0:c8:18:83:c4:
                    9c:50:6f:af:b9:92:a5:38:4b:b3:dd:ef:d8:ec:a3:
                    ef:e2:ea:39:85:a6:3c:2d:64:8e:c8:24:13:90:c9:
                    ca:23:f1:03:e7:14:ca:da:99:fb:13:f3:04:20:31:
                    06:42:5d:fc:9e:4f:de:af:d1:75:73:27:1d:01:9e:
                    6d:58:e5:b7:01:bd:76:26:84:e0:9e:f2:db:1a:80:
                    17:b4:63:2e:8a:1e:69:0c:84:7b:73:95:43:85:d3:
                    56:6b:5a:b7:fc:4a:7b:f8:c1:59:f1:7c:dd:3b:62:
                    62:22:8d:10:ad:2a:f0:69:a9:e0:b9:f4:0d:9e:26:
                    05:09:5a:12:24:6b:20:be:ef:e4:ee:0c:a8:3e:49:
                    69:4b
                Exponent: 65537 (0x10001)
        X509v3 extensions:
            X509v3 Basic Constraints: 
                CA:FALSE
            X509v3 Subject Key Identifier: 
                59:57:9D:AF:64:3F:CF:CD:2C:96:58:08:7E:04:60:58:A5:1E:37:E6
            X509v3 Authority Key Identifier: 
                keyid:29:FB:13:06:D3:CF:99:CA:E1:6E:CD:A7:58:9E:D4:94:60:9D:9F:32

    Signature Algorithm: sha512WithRSAEncryption
        09:b6:5a:99:9e:30:b5:85:47:d9:aa:da:7d:a8:d8:b5:32:03:
        1a:03:10:79:df:f5:e0:16:dd:4a:3b:ce:40:2f:39:4d:dc:45:
        82:7c:c7:21:f2:00:e2:8c:bc:96:90:ad:15:7b:5d:30:03:14:
        b1:6d:ae:86:37:10:14:d4:09:e4:67:3e:b9:25:49:52:13:31:
        3a:c1:2a:39:68:58:e8:10:a1:4c:6b:b5:ac:98:60:cb:d9:54:
        a4:9d:d3:d3:e5:90:6a:59:43:81:b0:f2:29:e5:5c:58:fc:5c:
        b2:14:1f:88:8d:be:25:b5:7d:91:6a:96:df:a5:b9:94:57:d5:
        fd:f4:13:3b:6b:43:b3:07:5d:a3:b8:13:e5:6e:29:a4:1e:2a:
        44:e0:68:95:69:6a:8f:89:0d:2d:b1:28:2a:a3:83:3f:9f:f1:
        d3:1e:3e:f5:88:91:83:f6:22:08:60:1b:ce:92:b5:82:f2:d3:
        9b:62:4d:1f:5f:85:99:3b:58:d0:9c:01:ef:d6:c5:14:2e:2b:
        89:fb:b6:a4:d6:3a:51:7f:69:79:00:ef:50:fb:ea:03:af:34:
        04:4d:2b:7a:41:11:64:9f:ef:d9:03:05:7b:77:52:82:f5:7a:
        2b:e9:e5:95:11:93:0f:1f:c9:91:bc:3b:71:35:c4:04:90:e3:
        c1:75:2e:ea
-----BEGIN CERTIFICATE-----
MIIDQjCCAiqgAwIBAgIBCzANBgkqhkiG9w0BAQ0FADA7MQswCQYDVQQGEwJOTDER
MA8GA1UEChMIUG9sYXJTU0wxGTAXBgNVBAMTEFBvbGFyU1NMIFRlc3QgQ0EwHhcN
MTAwOTMwMTIyNjU3WhcNMTIwOTI5MTIyNjU3WjA/MQswCQYDVQQGEwJOTDERMA8G
A1UEChMIUG9sYXJTU0wxHTAbBgNVBAMTFFBvbGFyU1NMIENlcnQgU0hBNTEyMIIB
IjANBgkqhkiG9w0BAQEFAAOCAQ8AMIIBCgKCAQEAv+/Aoryvm7d39xK+vE4b9SB5
fUA3rDqw/UmjhvP8exT7pW6EcQ5/GjJEdeaZ7RPWXLsS8y/gDQ3HZ3qBUVOR05/S
Yauwvd4EIiXX+3GG8P8Y3K23bQ5erKJOeE0tXpxMenr+0ta5L+bb2m0QecpYip4C
sMgYg8ScUG+vuZKlOEuz3e/Y7KPv4uo5haY8LWSOyCQTkMnKI/ED5xTK2pn7E/ME
IDEGQl38nk/er9F1cycdAZ5tWOW3Ab12JoTgnvLbGoAXtGMuih5pDIR7c5VDhdNW
a1q3/Ep7+MFZ8XzdO2JiIo0QrSrwaangufQNniYFCVoSJGsgvu/k7gyoPklpSwID
AQABo00wSzAJBgNVHRMEAjAAMB0GA1UdDgQWBBRZV52vZD/PzSyWWAh+BGBYpR43
5jAfBgNVHSMEGDAWgBQp+xMG08+ZyuFuzadYntSUYJ2fMjANBgkqhkiG9w0BAQ0F
AAOCAQEACbZamZ4wtYVH2arafajYtTIDGgMQed/14BbdSjvOQC85TdxFgnzHIfIA
4oy8lpCtFXtdMAMUsW2uhjcQFNQJ5Gc+uSVJUhMxOsEqOWhY6BChTGu1rJhgy9lU
pJ3T0+WQallDgbDyKeVcWPxcshQfiI2+JbV9kWqW36W5lFfV/fQTO2tDswddo7gT
5W4ppB4qROBolWlqj4kNLbEoKqODP5/x0x4+9YiRg/YiCGAbzpK1gvLTm2JNH1+F
mTtY0JwB79bFFC4rifu2pNY6UX9peQDvUPvqA680BE0rekERZJ/v2QMFe3dSgvV6
K+nllRGTDx/Jkbw7cTXEBJDjwXUu6g==
-----END CERTIFICATE-----
