Certificate:
    Data:
        Version: 3 (0x2)
        Serial Number: 1 (0x1)
        Signature Algorithm: sha1WithRSAEncryption
        Issuer: C=NL, O=PolarSSL, CN=PolarSSL Test CA
        Validity
            Not Before: Sep 30 12:26:57 2010 GMT
            Not After : Sep 29 12:26:57 2012 GMT
        Subject: C=NL, O=PolarSSL, CN=PolarSSL Server 1
        Subject Public Key Info:
            Public Key Algorithm: rsaEncryption
            RSA Public Key: (2048 bit)
                Modulus (2048 bit):
                    00:a3:35:ef:af:c2:1a:14:7c:eb:9e:00:11:0b:83:
                    d5:6a:1e:05:84:df:1e:bb:86:73:ea:76:89:64:9e:
                    fe:72:b0:0b:fa:de:20:da:ae:57:60:67:2c:da:2e:
                    ad:78:38:7d:c5:93:83:fb:6c:56:14:66:0b:0c:a7:
                    89:82:35:d3:d6:bc:0c:c7:d8:f6:33:9c:4d:18:27:
                    c5:6c:51:95:29:e2:5b:60:f6:f8:ea:35:10:c9:aa:
                    5e:c0:6f:96:85:dc:6e:ff:35:41:e1:3b:12:a1:d6:
                    1c:4d:4d:5a:8c:54:ac:50:6e:1b:12:ae:c1:9f:bc:
                    80:24:a8:cb:73:b2:2d:26:a3:fd:26:71:c9:63:91:
                    37:63:b3:92:31:12:c2:7f:a0:f5:33:31:fc:d5:f0:
                    f1:77:1d:ae:0f:7e:44:4a:5d:24:44:e6:bf:ba:e9:
                    00:a3:3b:03:eb:f5:9b:6e:f7:f2:66:bc:71:f9:8a:
                    ca:e0:85:ec:ce:f2:0b:38:f5:c4:a1:53:23:f3:75:
                    3d:7f:1b:7c:85:1b:74:42:af:ac:f7:04:27:98:0e:
                    9e:0e:80:81:a3:ff:61:b7:54:40:bc:54:91:2d:a1:
                    7c:eb:8a:c4:d8:aa:26:28:b1:60:7b:53:21:10:5d:
                    da:8b:e0:df:23:69:72:ee:2b:b0:e2:f4:fd:6f:a5:
                    f2:7f
                Exponent: 65537 (0x10001)
        X509v3 extensions:
            X509v3 Basic Constraints: 
                CA:FALSE
            X509v3 Subject Key Identifier: 
                B0:FB:F4:3F:68:1A:D5:1A:F9:7A:93:DB:0F:90:84:8A:13:AA:D4:A0
            X509v3 Authority Key Identifier: 
                keyid:29:FB:13:06:D3:CF:99:CA:E1:6E:CD:A7:58:9E:D4:94:60:9D:9F:32

    Signature Algorithm: sha1WithRSAEncryption
        71:40:9a:7a:7c:f0:7f:82:36:fa:1d:4d:d6:8a:eb:82:c3:22:
        ae:27:19:83:17:a4:a7:b8:d8:5d:a6:ab:76:46:38:f9:aa:f9:
        77:5c:ce:cb:8a:a4:c8:9a:ee:fd:4b:93:e5:c4:7e:0f:71:5c:
        22:e9:9b:3f:47:05:27:fb:ae:42:b9:c7:2b:a6:21:ac:6b:62:
        62:06:80:3f:56:03:a3:e3:2a:a5:7e:c1:56:3b:79:d0:9a:90:
        f0:1b:9b:6e:75:9b:5a:31:44:32:36:27:95:dd:b0:0b:71:c2:
        5f:dd:0f:52:2b:cb:1a:86:09:13:b1:73:5f:cf:1f:32:35:6d:
        ec:22:e6:4b:16:13:49:5a:f2:fb:4e:a1:3a:79:9e:d1:5f:a1:
        5c:a5:5e:9f:e9:2a:bf:70:29:60:32:62:c0:bb:eb:7a:cb:6b:
        04:48:4b:d5:ce:85:e7:13:38:6e:b0:00:d5:8a:0e:9b:d1:97:
        b9:00:ad:be:f0:38:1d:f9:a5:16:f2:6c:7e:bb:0f:c0:40:72:
        41:32:fd:fc:fe:d4:d3:12:d8:12:56:b7:e8:94:cb:75:72:9f:
        ae:2d:72:9d:32:a2:7e:d4:35:66:b8:d7:fa:63:b4:cb:a4:1f:
        f9:23:56:6c:dc:39:8c:81:e6:c5:9f:ce:d1:22:ea:5f:48:d1:
        0d:e4:8b:26
-----BEGIN CERTIFICATE-----
MIIDPzCCAiegAwIBAgIBATANBgkqhkiG9w0BAQUFADA7MQswCQYDVQQGEwJOTDER
MA8GA1UEChMIUG9sYXJTU0wxGTAXBgNVBAMTEFBvbGFyU1NMIFRlc3QgQ0EwHhcN
MTAwOTMwMTIyNjU3WhcNMTIwOTI5MTIyNjU3WjA8MQswCQYDVQQGEwJOTDERMA8G
A1UEChMIUG9sYXJTU0wxGjAYBgNVBAMTEVBvbGFyU1NMIFNlcnZlciAxMIIBIjAN
BgkqhkiG9w0BAQEFAAOCAQ8AMIIBCgKCAQEAozXvr8IaFHzrngARC4PVah4FhN8e
u4Zz6naJZJ7+crAL+t4g2q5XYGcs2i6teDh9xZOD+2xWFGYLDKeJgjXT1rwMx9j2
M5xNGCfFbFGVKeJbYPb46jUQyapewG+Whdxu/zVB4TsSodYcTU1ajFSsUG4bEq7B
n7yAJKjLc7ItJqP9JnHJY5E3Y7OSMRLCf6D1MzH81fDxdx2uD35ESl0kROa/uukA
ozsD6/WbbvfyZrxx+YrK4IXszvILOPXEoVMj83U9fxt8hRt0Qq+s9wQnmA6eDoCB
o/9ht1RAvFSRLaF864rE2KomKLFge1MhEF3ai+DfI2ly7iuw4vT9b6XyfwIDAQAB
o00wSzAJBgNVHRMEAjAAMB0GA1UdDgQWBBSw+/Q/aBrVGvl6k9sPkISKE6rUoDAf
BgNVHSMEGDAWgBQp+xMG08+ZyuFuzadYntSUYJ2fMjANBgkqhkiG9w0BAQUFAAOC
AQEAcUCaenzwf4I2+h1N1orrgsMiricZgxekp7jYXaardkY4+ar5d1zOy4qkyJru
/UuT5cR+D3FcIumbP0cFJ/uuQrnHK6YhrGtiYgaAP1YDo+MqpX7BVjt50JqQ8Bub
bnWbWjFEMjYnld2wC3HCX90PUivLGoYJE7FzX88fMjVt7CLmSxYTSVry+06hOnme
0V+hXKVen+kqv3ApYDJiwLvrestrBEhL1c6F5xM4brAA1YoOm9GXuQCtvvA4Hfml
FvJsfrsPwEByQTL9/P7U0xLYEla36JTLdXKfri1ynTKiftQ1ZrjX+mO0y6Qf+SNW
bNw5jIHmxZ/O0SLqX0jRDeSLJg==
-----END CERTIFICATE-----
