Certificate:
    Data:
        Version: 3 (0x2)
        Serial Number: 5 (0x5)
        Signature Algorithm: md4WithRSAEncryption
        Issuer: C=NL, O=PolarSSL, CN=PolarSSL Test CA
        Validity
            Not Before: Sep 30 12:26:57 2010 GMT
            Not After : Sep 29 12:26:57 2012 GMT
        Subject: C=NL, O=PolarSSL, CN=PolarSSL Cert MD4
        Subject Public Key Info:
            Public Key Algorithm: rsaEncryption
            RSA Public Key: (2048 bit)
                Modulus (2048 bit):
                    00:bf:ef:c0:a2:bc:af:9b:b7:77:f7:12:be:bc:4e:
                    1b:f5:20:79:7d:40:37:ac:3a:b0:fd:49:a3:86:f3:
                    fc:7b:14:fb:a5:6e:84:71:0e:7f:1a:32:44:75:e6:
                    99:ed:13:d6:5c:bb:12:f3:2f:e0:0d:0d:c7:67:7a:
                    81:51:53:91:d3:9f:d2:61:ab:b0:bd:de:04:22:25:
                    d7:fb:71:86:f0:ff:18:dc:ad:b7:6d:0e:5e:ac:a2:
                    4e:78:4d:2d:5e:9c:4c:7a:7a:fe:d2:d6:b9:2f:e6:
                    db:da:6d:10:79:ca:58:8a:9e:02:b0:c8:18:83:c4:
                    9c:50:6f:af:b9:92:a5:38:4b:b3:dd:ef:d8:ec:a3:
                    ef:e2:ea:39:85:a6:3c:2d:64:8e:c8:24:13:90:c9:
                    ca:23:f1:03:e7:14:ca:da:99:fb:13:f3:04:20:31:
                    06:42:5d:fc:9e:4f:de:af:d1:75:73:27:1d:01:9e:
                    6d:58:e5:b7:01:bd:76:26:84:e0:9e:f2:db:1a:80:
                    17:b4:63:2e:8a:1e:69:0c:84:7b:73:95:43:85:d3:
                    56:6b:5a:b7:fc:4a:7b:f8:c1:59:f1:7c:dd:3b:62:
                    62:22:8d:10:ad:2a:f0:69:a9:e0:b9:f4:0d:9e:26:
                    05:09:5a:12:24:6b:20:be:ef:e4:ee:0c:a8:3e:49:
                    69:4b
                Exponent: 65537 (0x10001)
        X509v3 extensions:
            X509v3 Basic Constraints: 
                CA:FALSE
            X509v3 Subject Key Identifier: 
                59:57:9D:AF:64:3F:CF:CD:2C:96:58:08:7E:04:60:58:A5:1E:37:E6
            X509v3 Authority Key Identifier: 
                keyid:29:FB:13:06:D3:CF:99:CA:E1:6E:CD:A7:58:9E:D4:94:60:9D:9F:32

    Signature Algorithm: md4WithRSAEncryption
        22:ca:64:3f:21:2e:02:1a:a7:3e:00:b0:f1:ca:a8:78:9d:d8:
        6b:1c:27:48:93:d1:01:f8:65:0c:f4:a0:fc:84:1e:79:74:55:
        dc:30:3c:0e:07:22:60:cf:5a:82:9a:53:4a:16:9c:14:16:03:
        d3:2f:07:d9:dc:dd:3e:e1:d8:92:5e:19:34:4d:42:31:a0:0e:
        42:40:9a:a2:3e:72:1b:bd:4a:ef:c1:e4:99:79:27:64:6e:2f:
        f6:e0:dd:8c:3d:3a:3f:82:d7:81:4e:02:5d:56:05:ba:9c:22:
        da:5f:4c:0c:05:45:9d:9c:42:61:8f:b1:0c:23:33:db:18:cd:
        19:f7:f0:30:b7:a5:23:a8:29:81:b1:93:5a:7b:ed:23:02:10:
        17:fa:07:e7:ab:c4:ef:7b:1a:27:35:c9:29:8e:dc:2f:73:10:
        28:7d:70:6f:5e:25:db:84:b4:37:98:02:8c:60:1c:4c:25:f5:
        82:6f:2f:c1:48:ef:5f:fc:4a:f9:f3:9c:67:cd:da:3d:98:6c:
        f9:88:3e:97:22:49:57:36:8c:66:6d:6b:c9:ee:4c:66:cb:ee:
        6f:41:f3:d9:b0:8e:42:fc:52:17:fa:92:66:aa:4b:7b:e7:bc:
        33:2d:ee:ab:f7:be:5b:5c:e4:a8:ab:88:96:3b:be:8a:ae:a9:
        07:2f:28:39
-----BEGIN CERTIFICATE-----
MIIDPzCCAiegAwIBAgIBBTANBgkqhkiG9w0BAQMFADA7MQswCQYDVQQGEwJOTDER
MA8GA1UEChMIUG9sYXJTU0wxGTAXBgNVBAMTEFBvbGFyU1NMIFRlc3QgQ0EwHhcN
MTAwOTMwMTIyNjU3WhcNMTIwOTI5MTIyNjU3WjA8MQswCQYDVQQGEwJOTDERMA8G
A1UEChMIUG9sYXJTU0wxGjAYBgNVBAMTEVBvbGFyU1NMIENlcnQgTUQ0MIIBIjAN
BgkqhkiG9w0BAQEFAAOCAQ8AMIIBCgKCAQEAv+/Aoryvm7d39xK+vE4b9SB5fUA3
rDqw/UmjhvP8exT7pW6EcQ5/GjJEdeaZ7RPWXLsS8y/gDQ3HZ3qBUVOR05/SYauw
vd4EIiXX+3GG8P8Y3K23bQ5erKJOeE0tXpxMenr+0ta5L+bb2m0QecpYip4CsMgY
g8ScUG+vuZKlOEuz3e/Y7KPv4uo5haY8LWSOyCQTkMnKI/ED5xTK2pn7E/MEIDEG
Ql38nk/er9F1cycdAZ5tWOW3Ab12JoTgnvLbGoAXtGMuih5pDIR7c5VDhdNWa1q3
/Ep7+MFZ8XzdO2JiIo0QrSrwaangufQNniYFCVoSJGsgvu/k7gyoPklpSwIDAQAB
o00wSzAJBgNVHRMEAjAAMB0GA1UdDgQWBBRZV52vZD/PzSyWWAh+BGBYpR435jAf
BgNVHSMEGDAWgBQp+xMG08+ZyuFuzadYntSUYJ2fMjANBgkqhkiG9w0BAQMFAAOC
AQEAIspkPyEuAhqnPgCw8cqoeJ3YaxwnSJPRAfhlDPSg/IQeeXRV3DA8DgciYM9a
gppTShacFBYD0y8H2dzdPuHYkl4ZNE1CMaAOQkCaoj5yG71K78HkmXknZG4v9uDd
jD06P4LXgU4CXVYFupwi2l9MDAVFnZxCYY+xDCMz2xjNGffwMLelI6gpgbGTWnvt
IwIQF/oH56vE73saJzXJKY7cL3MQKH1wb14l24S0N5gCjGAcTCX1gm8vwUjvX/xK
+fOcZ83aPZhs+Yg+lyJJVzaMZm1rye5MZsvub0Hz2bCOQvxSF/qSZqpLe+e8My3u
q/e+W1zkqKuIlju+iq6pBy8oOQ==
-----END CERTIFICATE-----
