Certificate:
    Data:
        Version: 3 (0x2)
        Serial Number: 8 (0x8)
        Signature Algorithm: sha224WithRSAEncryption
        Issuer: C=NL, O=PolarSSL, CN=PolarSSL Test CA
        Validity
            Not Before: Sep 30 12:26:57 2010 GMT
            Not After : Sep 29 12:26:57 2012 GMT
        Subject: C=NL, O=PolarSSL, CN=PolarSSL Cert SHA224
        Subject Public Key Info:
            Public Key Algorithm: rsaEncryption
            RSA Public Key: (2048 bit)
                Modulus (2048 bit):
                    00:bf:ef:c0:a2:bc:af:9b:b7:77:f7:12:be:bc:4e:
                    1b:f5:20:79:7d:40:37:ac:3a:b0:fd:49:a3:86:f3:
                    fc:7b:14:fb:a5:6e:84:71:0e:7f:1a:32:44:75:e6:
                    99:ed:13:d6:5c:bb:12:f3:2f:e0:0d:0d:c7:67:7a:
                    81:51:53:91:d3:9f:d2:61:ab:b0:bd:de:04:22:25:
                    d7:fb:71:86:f0:ff:18:dc:ad:b7:6d:0e:5e:ac:a2:
                    4e:78:4d:2d:5e:9c:4c:7a:7a:fe:d2:d6:b9:2f:e6:
                    db:da:6d:10:79:ca:58:8a:9e:02:b0:c8:18:83:c4:
                    9c:50:6f:af:b9:92:a5:38:4b:b3:dd:ef:d8:ec:a3:
                    ef:e2:ea:39:85:a6:3c:2d:64:8e:c8:24:13:90:c9:
                    ca:23:f1:03:e7:14:ca:da:99:fb:13:f3:04:20:31:
                    06:42:5d:fc:9e:4f:de:af:d1:75:73:27:1d:01:9e:
                    6d:58:e5:b7:01:bd:76:26:84:e0:9e:f2:db:1a:80:
                    17:b4:63:2e:8a:1e:69:0c:84:7b:73:95:43:85:d3:
                    56:6b:5a:b7:fc:4a:7b:f8:c1:59:f1:7c:dd:3b:62:
                    62:22:8d:10:ad:2a:f0:69:a9:e0:b9:f4:0d:9e:26:
                    05:09:5a:12:24:6b:20:be:ef:e4:ee:0c:a8:3e:49:
                    69:4b
                Exponent: 65537 (0x10001)
        X509v3 extensions:
            X509v3 Basic Constraints: 
                CA:FALSE
            X509v3 Subject Key Identifier: 
                59:57:9D:AF:64:3F:CF:CD:2C:96:58:08:7E:04:60:58:A5:1E:37:E6
            X509v3 Authority Key Identifier: 
                keyid:29:FB:13:06:D3:CF:99:CA:E1:6E:CD:A7:58:9E:D4:94:60:9D:9F:32

    Signature Algorithm: sha224WithRSAEncryption
        05:cb:0d:b0:64:ac:9a:29:67:be:1b:2f:7c:8d:08:a8:36:c5:
        f2:50:91:aa:fb:3c:c8:cf:bc:be:03:f9:bf:aa:16:ee:f8:45:
        59:ce:ee:db:2f:6e:87:7b:4d:38:af:71:bd:cd:fe:9d:c6:ec:
        2f:51:4a:d6:77:fb:8f:ea:3d:a5:32:e8:f9:ec:89:bf:a0:bd:
        00:db:c3:74:cf:70:f1:8c:18:d7:f0:5f:01:74:e5:79:f1:4b:
        31:aa:33:b3:b4:c3:cc:c3:ac:6d:65:bb:a0:52:81:f2:dd:44:
        4b:87:3a:a4:3e:48:15:08:22:be:b0:c1:eb:4f:73:86:58:a3:
        88:58:d5:e6:a1:3d:c7:40:f1:83:f0:ac:1a:ef:54:7f:ac:c7:
        05:01:dc:c7:f6:25:7f:7c:f9:df:55:f4:5e:2f:35:9e:4d:2e:
        8b:ae:42:72:44:d1:1f:db:d2:ae:c8:c6:38:85:af:90:48:4c:
        5d:d6:8d:79:69:52:d6:7b:e7:9d:90:a0:c2:7f:a1:98:ae:6f:
        69:e5:f8:1f:ab:46:8b:d3:73:18:9b:84:36:35:d2:52:77:4a:
        e2:bb:96:ba:7d:1f:32:69:f1:b1:1b:86:f9:cb:fa:29:55:0c:
        7c:f5:d5:f0:5a:82:be:bb:37:86:e9:11:8b:3d:e5:cb:88:fa:
        b0:af:cc:ff
-----BEGIN CERTIFICATE-----
MIIDQjCCAiqgAwIBAgIBCDANBgkqhkiG9w0BAQ4FADA7MQswCQYDVQQGEwJOTDER
MA8GA1UEChMIUG9sYXJTU0wxGTAXBgNVBAMTEFBvbGFyU1NMIFRlc3QgQ0EwHhcN
MTAwOTMwMTIyNjU3WhcNMTIwOTI5MTIyNjU3WjA/MQswCQYDVQQGEwJOTDERMA8G
A1UEChMIUG9sYXJTU0wxHTAbBgNVBAMTFFBvbGFyU1NMIENlcnQgU0hBMjI0MIIB
IjANBgkqhkiG9w0BAQEFAAOCAQ8AMIIBCgKCAQEAv+/Aoryvm7d39xK+vE4b9SB5
fUA3rDqw/UmjhvP8exT7pW6EcQ5/GjJEdeaZ7RPWXLsS8y/gDQ3HZ3qBUVOR05/S
Yauwvd4EIiXX+3GG8P8Y3K23bQ5erKJOeE0tXpxMenr+0ta5L+bb2m0QecpYip4C
sMgYg8ScUG+vuZKlOEuz3e/Y7KPv4uo5haY8LWSOyCQTkMnKI/ED5xTK2pn7E/ME
IDEGQl38nk/er9F1cycdAZ5tWOW3Ab12JoTgnvLbGoAXtGMuih5pDIR7c5VDhdNW
a1q3/Ep7+MFZ8XzdO2JiIo0QrSrwaangufQNniYFCVoSJGsgvu/k7gyoPklpSwID
AQABo00wSzAJBgNVHRMEAjAAMB0GA1UdDgQWBBRZV52vZD/PzSyWWAh+BGBYpR43
5jAfBgNVHSMEGDAWgBQp+xMG08+ZyuFuzadYntSUYJ2fMjANBgkqhkiG9w0BAQ4F
AAOCAQEABcsNsGSsmilnvhsvfI0IqDbF8lCRqvs8yM+8vgP5v6oW7vhFWc7u2y9u
h3tNOK9xvc3+ncbsL1FK1nf7j+o9pTLo+eyJv6C9ANvDdM9w8YwY1/BfAXTlefFL
Maozs7TDzMOsbWW7oFKB8t1ES4c6pD5IFQgivrDB609zhlijiFjV5qE9x0Dxg/Cs
Gu9Uf6zHBQHcx/Ylf3z531X0Xi81nk0ui65CckTRH9vSrsjGOIWvkEhMXdaNeWlS
1nvnnZCgwn+hmK5vaeX4H6tGi9NzGJuENjXSUndK4ruWun0fMmnxsRuG+cv6KVUM
fPXV8FqCvrs3hukRiz3ly4j6sK/M/w==
-----END CERTIFICATE-----
