Certificate:
    Data:
        Version: 3 (0x2)
        Serial Number: 10 (0xa)
        Signature Algorithm: sha384WithRSAEncryption
        Issuer: C=NL, O=PolarSSL, CN=PolarSSL Test CA
        Validity
            Not Before: Sep 30 12:26:57 2010 GMT
            Not After : Sep 29 12:26:57 2012 GMT
        Subject: C=NL, O=PolarSSL, CN=PolarSSL Cert SHA384
        Subject Public Key Info:
            Public Key Algorithm: rsaEncryption
            RSA Public Key: (2048 bit)
                Modulus (2048 bit):
                    00:bf:ef:c0:a2:bc:af:9b:b7:77:f7:12:be:bc:4e:
                    1b:f5:20:79:7d:40:37:ac:3a:b0:fd:49:a3:86:f3:
                    fc:7b:14:fb:a5:6e:84:71:0e:7f:1a:32:44:75:e6:
                    99:ed:13:d6:5c:bb:12:f3:2f:e0:0d:0d:c7:67:7a:
                    81:51:53:91:d3:9f:d2:61:ab:b0:bd:de:04:22:25:
                    d7:fb:71:86:f0:ff:18:dc:ad:b7:6d:0e:5e:ac:a2:
                    4e:78:4d:2d:5e:9c:4c:7a:7a:fe:d2:d6:b9:2f:e6:
                    db:da:6d:10:79:ca:58:8a:9e:02:b0:c8:18:83:c4:
                    9c:50:6f:af:b9:92:a5:38:4b:b3:dd:ef:d8:ec:a3:
                    ef:e2:ea:39:85:a6:3c:2d:64:8e:c8:24:13:90:c9:
                    ca:23:f1:03:e7:14:ca:da:99:fb:13:f3:04:20:31:
                    06:42:5d:fc:9e:4f:de:af:d1:75:73:27:1d:01:9e:
                    6d:58:e5:b7:01:bd:76:26:84:e0:9e:f2:db:1a:80:
                    17:b4:63:2e:8a:1e:69:0c:84:7b:73:95:43:85:d3:
                    56:6b:5a:b7:fc:4a:7b:f8:c1:59:f1:7c:dd:3b:62:
                    62:22:8d:10:ad:2a:f0:69:a9:e0:b9:f4:0d:9e:26:
                    05:09:5a:12:24:6b:20:be:ef:e4:ee:0c:a8:3e:49:
                    69:4b
                Exponent: 65537 (0x10001)
        X509v3 extensions:
            X509v3 Basic Constraints: 
                CA:FALSE
            X509v3 Subject Key Identifier: 
                59:57:9D:AF:64:3F:CF:CD:2C:96:58:08:7E:04:60:58:A5:1E:37:E6
            X509v3 Authority Key Identifier: 
                keyid:29:FB:13:06:D3:CF:99:CA:E1:6E:CD:A7:58:9E:D4:94:60:9D:9F:32

    Signature Algorithm: sha384WithRSAEncryption
        a5:24:89:68:68:a9:35:ce:6b:08:cb:02:2d:f6:03:f4:4d:04:
        93:cc:e3:33:a1:6b:58:72:82:b7:50:f5:43:06:31:c0:36:8e:
        f6:3a:3e:7f:53:1b:62:df:26:c1:16:76:e9:f4:c1:a2:47:83:
        4c:a6:f1:e6:16:25:ca:34:4c:00:0e:a9:07:dc:8b:29:88:30:
        bb:fe:ee:d0:f4:51:4c:85:68:6c:c3:86:20:1a:54:bc:f8:95:
        3d:3e:5e:78:56:9b:ff:c1:36:76:96:32:e1:9e:da:42:dc:d5:
        ba:3e:7a:bf:32:46:4e:1e:d4:fd:95:b7:d9:62:e9:01:f4:52:
        ee:8b:a5:79:bc:c9:19:3a:23:0a:1e:c9:8e:2c:e7:29:8c:19:
        1d:89:47:a9:25:a2:9d:a1:59:43:13:bd:56:67:9e:4c:9f:4b:
        37:7d:38:e6:0e:d7:be:b3:2c:77:04:50:3d:48:9c:07:f0:1f:
        76:43:f4:3e:1c:ec:b7:d2:94:51:f3:3b:bd:47:5e:15:81:b2:
        d4:77:5e:8e:18:43:3e:c6:d7:7d:eb:f6:e2:91:66:96:ca:74:
        e7:a8:18:a9:11:71:79:6b:8e:01:f6:c6:96:ca:4f:9c:ef:71:
        d2:d3:83:5d:59:cf:87:a2:ca:3f:a5:9c:14:32:4a:53:6e:4a:
        ad:d8:70:5f
-----BEGIN CERTIFICATE-----
MIIDQjCCAiqgAwIBAgIBCjANBgkqhkiG9w0BAQwFADA7MQswCQYDVQQGEwJOTDER
MA8GA1UEChMIUG9sYXJTU0wxGTAXBgNVBAMTEFBvbGFyU1NMIFRlc3QgQ0EwHhcN
MTAwOTMwMTIyNjU3WhcNMTIwOTI5MTIyNjU3WjA/MQswCQYDVQQGEwJOTDERMA8G
A1UEChMIUG9sYXJTU0wxHTAbBgNVBAMTFFBvbGFyU1NMIENlcnQgU0hBMzg0MIIB
IjANBgkqhkiG9w0BAQEFAAOCAQ8AMIIBCgKCAQEAv+/Aoryvm7d39xK+vE4b9SB5
fUA3rDqw/UmjhvP8exT7pW6EcQ5/GjJEdeaZ7RPWXLsS8y/gDQ3HZ3qBUVOR05/S
Yauwvd4EIiXX+3GG8P8Y3K23bQ5erKJOeE0tXpxMenr+0ta5L+bb2m0QecpYip4C
sMgYg8ScUG+vuZKlOEuz3e/Y7KPv4uo5haY8LWSOyCQTkMnKI/ED5xTK2pn7E/ME
IDEGQl38nk/er9F1cycdAZ5tWOW3Ab12JoTgnvLbGoAXtGMuih5pDIR7c5VDhdNW
a1q3/Ep7+MFZ8XzdO2JiIo0QrSrwaangufQNniYFCVoSJGsgvu/k7gyoPklpSwID
AQABo00wSzAJBgNVHRMEAjAAMB0GA1UdDgQWBBRZV52vZD/PzSyWWAh+BGBYpR43
5jAfBgNVHSMEGDAWgBQp+xMG08+ZyuFuzadYntSUYJ2fMjANBgkqhkiG9w0BAQwF
AAOCAQEApSSJaGipNc5rCMsCLfYD9E0Ek8zjM6FrWHKCt1D1QwYxwDaO9jo+f1Mb
Yt8mwRZ26fTBokeDTKbx5hYlyjRMAA6pB9yLKYgwu/7u0PRRTIVobMOGIBpUvPiV
PT5eeFab/8E2dpYy4Z7aQtzVuj56vzJGTh7U/ZW32WLpAfRS7oulebzJGTojCh7J
jiznKYwZHYlHqSWinaFZQxO9VmeeTJ9LN3045g7XvrMsdwRQPUicB/AfdkP0Phzs
t9KUUfM7vUdeFYGy1HdejhhDPsbXfev24pFmlsp056gYqRFxeWuOAfbGlspPnO9x
0tODXVnPh6LKP6WcFDJKU25KrdhwXw==
-----END CERTIFICATE-----
