Certificate:
    Data:
        Version: 3 (0x2)
        Serial Number: 1 (0x1)
        Signature Algorithm: sha1WithRSAEncryption
        Issuer: C=ZA, ST=Western Cape, L=Cape Town, O=Thawte Consulting cc, OU=Certification Services Division, CN=Thawte Premium Server CA/emailAddress=premium-server@thawte.com
        Validity
            Not Before: Sep 30 20:27:29 2010 GMT
            Not After : Sep 24 20:27:29 2035 GMT
        Subject: C=RU, O=Kaspersky Laboratory, CN=www.kaspersky.com
        Subject Public Key Info:
            Public Key Algorithm: rsaEncryption
            RSA Public Key: (2048 bit)
                Modulus (2048 bit):
                    00:b7:78:84:a2:8c:c3:c6:5d:fe:0f:8a:a0:b2:b3:
                    08:83:a0:b0:f7:ba:c2:65:a9:03:0f:c0:99:f5:9c:
                    cb:2b:77:ca:1a:30:8b:30:84:98:9d:9d:61:ee:e9:
                    07:3a:7e:f5:68:fc:0b:ef:3a:e7:72:36:a6:77:4f:
                    74:fd:85:81:b4:86:9a:46:57:eb:05:39:ba:b8:6b:
                    96:fe:0d:67:95:99:1c:18:6d:2f:55:71:20:59:da:
                    c9:a0:a3:29:39:81:3c:b2:4f:86:e9:f1:a4:c2:89:
                    f1:ed:3b:52:62:3b:34:61:c1:4a:05:10:b6:a6:fc:
                    07:57:5a:70:80:01:34:c7:8a:ef:a6:70:40:66:8c:
                    18:4f:48:bb:0a:ad:fc:3a:9b:12:bd:3e:a4:bc:80:
                    86:8a:b2:76:ad:23:7e:3b:80:2a:f6:6c:d6:75:71:
                    32:9d:9a:56:b8:f8:ac:1a:ef:22:21:46:d3:44:e1:
                    d5:3e:f7:15:e1:40:a7:fd:86:0f:11:74:d2:d3:48:
                    04:b9:0d:28:b6:4d:df:6a:8a:34:b6:12:3e:d3:72:
                    41:16:55:85:02:ea:ba:e2:27:12:e4:78:48:2a:8c:
                    d0:9b:16:9a:4c:40:5a:47:c9:8e:e4:00:0f:3f:54:
                    3a:c1:a0:3f:92:8d:61:1a:e6:e9:89:ad:b0:24:29:
                    97:a1
                Exponent: 65537 (0x10001)
        X509v3 extensions:
            X509v3 Basic Constraints: 
                CA:FALSE
            X509v3 Subject Key Identifier: 
                64:37:90:9F:F7:01:11:DB:98:43:D7:36:F2:31:29:C2:52:D4:6F:71
            X509v3 Authority Key Identifier: 
                DirName:/C=ZA/ST=Western Cape/L=Cape Town/O=Thawte Consulting cc/OU=Certification Services Division/CN=Thawte Premium Server CA/emailAddress=premium-server@thawte.com
                serial:01

    Signature Algorithm: sha1WithRSAEncryption
        48:ea:6d:fa:8f:be:29:c6:7c:da:85:37:c6:6f:17:83:a6:54:
        c9:0b:5d:c4:bc:7b:85:c7:02:3d:fb:d5:c9:04:80:c5:cd:a4:
        86:c7:6b:7a:ca:6e:68:35:be:f7:c0:8e:ff:60:f6:66:2e:01:
        06:39:df:b4:08:ab:24:06:df:1a:df:d7:3f:e3:6b:59:e3:f4:
        3d:cd:cd:af:a2:58:25:ec:d2:c2:a0:7a:7d:8b:c4:4d:40:03:
        fc:51:fc:fe:dc:d0:db:9d:b5:c0:34:fc:be:5e:cc:02:49:c4:
        c9:0f:7e:ff:39:09:43:39:6e:05:8b:da:2e:32:91:44:d6:ea:
        eb:a8:6f:fb:62:2f:cc:0e:0b:7f:13:36:14:ab:40:a2:62:5d:
        b0:1d:67:f0:1e:da:35:3c:63:46:a7:c6:7b:c8:57:c2:9e:f7:
        38:63:7d:2d:e5:72:34:72:2c:3d:86:a3:0d:f8:05:46:e0:02:
        e5:4d:23:68:3d:7a:e0:a4:3b:8b:83:e2:67:92:83:41:d0:19:
        93:b7:77:ea:1a:01:36:b4:b3:6b:c4:73:9a:20:59:42:ec:75:
        cb:d3:20:f8:25:5d:49:c4:ad:19:e1:bc:ee:4e:dc:0c:a1:bb:
        64:af:26:38:53:2b:28:72:4d:ca:3b:bd:32:eb:41:5b:b6:a4:
        f2:4f:69:2a
-----BEGIN CERTIFICATE-----
MIIEqjCCA5KgAwIBAgIBATANBgkqhkiG9w0BAQUFADCBzjELMAkGA1UEBhMCWkEx
FTATBgNVBAgTDFdlc3Rlcm4gQ2FwZTESMBAGA1UEBxMJQ2FwZSBUb3duMR0wGwYD
VQQKExRUaGF3dGUgQ29uc3VsdGluZyBjYzEoMCYGA1UECxMfQ2VydGlmaWNhdGlv
biBTZXJ2aWNlcyBEaXZpc2lvbjEhMB8GA1UEAxMYVGhhd3RlIFByZW1pdW0gU2Vy
dmVyIENBMSgwJgYJKoZIhvcNAQkBFhlwcmVtaXVtLXNlcnZlckB0aGF3dGUuY29t
MB4XDTEwMDkzMDIwMjcyOVoXDTM1MDkyNDIwMjcyOVowSDELMAkGA1UEBhMCUlUx
HTAbBgNVBAoTFEthc3BlcnNreSBMYWJvcmF0b3J5MRowGAYDVQQDExF3d3cua2Fz
cGVyc2t5LmNvbTCCASIwDQYJKoZIhvcNAQEBBQADggEPADCCAQoCggEBALd4hKKM
w8Zd/g+KoLKzCIOgsPe6wmWpAw/AmfWcyyt3yhowizCEmJ2dYe7pBzp+9Wj8C+86
53I2pndPdP2FgbSGmkZX6wU5urhrlv4NZ5WZHBhtL1VxIFnayaCjKTmBPLJPhunx
pMKJ8e07UmI7NGHBSgUQtqb8B1dacIABNMeK76ZwQGaMGE9Iuwqt/DqbEr0+pLyA
hoqydq0jfjuAKvZs1nVxMp2aVrj4rBrvIiFG00Th1T73FeFAp/2GDxF00tNIBLkN
KLZN32qKNLYSPtNyQRZVhQLquuInEuR4SCqM0JsWmkxAWkfJjuQADz9UOsGgP5KN
YRrm6YmtsCQpl6ECAwEAAaOCARYwggESMAkGA1UdEwQCMAAwHQYDVR0OBBYEFGQ3
kJ/3ARHbmEPXNvIxKcJS1G9xMIHlBgNVHSMEgd0wgdqhgdSkgdEwgc4xCzAJBgNV
BAYTAlpBMRUwEwYDVQQIEwxXZXN0ZXJuIENhcGUxEjAQBgNVBAcTCUNhcGUgVG93
bjEdMBsGA1UEChMUVGhhd3RlIENvbnN1bHRpbmcgY2MxKDAmBgNVBAsTH0NlcnRp
ZmljYXRpb24gU2VydmljZXMgRGl2aXNpb24xITAfBgNVBAMTGFRoYXd0ZSBQcmVt
aXVtIFNlcnZlciBDQTEoMCYGCSqGSIb3DQEJARYZcHJlbWl1bS1zZXJ2ZXJAdGhh
d3RlLmNvbYIBATANBgkqhkiG9w0BAQUFAAOCAQEASOpt+o++KcZ82oU3xm8Xg6ZU
yQtdxLx7hccCPfvVyQSAxc2khsdrespuaDW+98CO/2D2Zi4BBjnftAirJAbfGt/X
P+NrWeP0Pc3Nr6JYJezSwqB6fYvETUAD/FH8/tzQ2521wDT8vl7MAknEyQ9+/zkJ
QzluBYvaLjKRRNbq66hv+2IvzA4LfxM2FKtAomJdsB1n8B7aNTxjRqfGe8hXwp73
OGN9LeVyNHIsPYajDfgFRuAC5U0jaD164KQ7i4PiZ5KDQdAZk7d36hoBNrSza8Rz
miBZQux1y9Mg+CVdScStGeG87k7cDKG7ZK8mOFMrKHJNyju9MutBW7ak8k9pKg==
-----END CERTIFICATE-----
