Certificate:
    Data:
        Version: 3 (0x2)
        Serial Number: 2 (0x2)
        Signature Algorithm: sha1WithRSAEncryption
        Issuer: C=ZA, ST=Western Cape, L=Cape Town, O=Thawte Consulting cc, OU=Certification Services Division, CN=Thawte Premium Server CA/emailAddress=premium-server@thawte.com
        Validity
            Not Before: Sep 30 20:27:29 2010 GMT
            Not After : Sep 24 20:27:29 2035 GMT
        Subject: C=RU, O=Kaspersky Laboratory, CN=www.kaspersky.com
        Subject Public Key Info:
            Public Key Algorithm: rsaEncryption
            RSA Public Key: (2048 bit)
                Modulus (2048 bit):
                    00:aa:56:72:ef:c4:8c:9a:47:d9:6f:b5:a8:9e:6f:
                    19:25:98:81:72:40:1c:7f:08:32:6d:d1:93:32:5b:
                    ee:33:30:01:ed:29:09:68:af:fc:1e:4c:b3:b8:b9:
                    4b:99:d9:9f:9b:2a:60:55:af:e1:e4:69:5b:b3:b3:
                    c9:2e:07:9e:49:0f:dd:35:da:43:ca:11:54:da:6e:
                    99:7e:cf:4a:59:1d:16:8f:4d:e9:0d:d6:14:e7:f7:
                    fd:0b:d1:9e:9b:e9:89:14:e3:df:89:e5:03:55:96:
                    52:85:bc:69:9d:2d:bb:2c:11:cf:63:b0:46:3a:28:
                    4e:d0:eb:94:32:f5:99:d9:8c:93:b1:2b:ad:e5:cf:
                    00:d8:3b:81:b0:8a:e1:ad:20:58:57:4d:39:5e:68:
                    44:d4:7c:75:b5:8a:fa:91:6d:0d:94:62:07:f6:e3:
                    95:a4:ea:75:29:3c:cd:55:e9:29:53:bf:8e:0d:f6:
                    fd:65:6c:14:a5:c0:83:2b:67:07:ea:98:48:08:55:
                    99:91:91:79:5d:dd:0f:96:b3:fe:2c:18:38:37:00:
                    02:bc:07:9f:c2:a3:06:8d:1d:eb:22:f0:0e:99:05:
                    19:d3:e0:fc:8e:cc:b4:f8:83:51:e5:dc:64:82:a6:
                    d7:5d:75:c6:bd:a4:d4:de:df:b6:a1:a9:0c:c2:d2:
                    ce:7f
                Exponent: 65537 (0x10001)
        X509v3 extensions:
            X509v3 Basic Constraints: 
                CA:FALSE
            X509v3 Subject Key Identifier: 
                B0:56:99:81:7C:87:D0:3F:10:CF:99:0E:6E:9E:39:B4:1E:C5:53:B0
            X509v3 Authority Key Identifier: 
                DirName:/C=ZA/ST=Western Cape/L=Cape Town/O=Thawte Consulting cc/OU=Certification Services Division/CN=Thawte Premium Server CA/emailAddress=premium-server@thawte.com
                serial:01

    Signature Algorithm: sha1WithRSAEncryption
        20:a7:6f:21:a5:0a:5f:a7:b5:c6:95:fe:25:d7:4a:49:a1:16:
        50:99:47:aa:14:10:30:2f:58:f5:36:b6:b0:de:1d:e8:61:5d:
        70:4a:73:95:85:9f:fa:02:7c:cd:e4:3a:6f:1c:cd:9b:de:eb:
        e6:e8:93:eb:96:bb:72:4a:1e:02:a9:25:04:7e:b0:34:25:8d:
        e4:b5:69:20:48:f2:49:74:1f:20:93:54:63:bc:96:5b:a0:03:
        cc:aa:ff:87:f9:b7:34:9f:39:5f:73:12:6f:34:81:08:99:d5:
        8b:a2:8f:bd:cf:e6:70:40:f1:f2:8e:8f:e4:c0:72:e9:80:7f:
        f1:91:ef:02:cf:c3:89:c0:d9:8d:4c:3e:38:2d:93:3d:3c:97:
        32:7f:9f:55:16:4a:fe:69:ae:b7:48:7f:22:10:53:45:c9:fa:
        a1:f0:cf:ae:a7:82:39:8f:9a:59:0b:dc:45:15:39:b1:1a:b3:
        30:5a:73:a1:da:17:9b:2d:bd:2a:e8:04:ec:2d:01:4c:86:df:
        2d:e2:10:06:40:97:53:ec:65:6f:72:19:ce:41:e5:71:4d:36:
        56:fb:6f:00:22:e6:5e:15:75:73:30:74:54:bb:b0:13:69:57:
        ba:95:d3:b9:fd:6e:44:39:3d:47:53:b3:a0:4c:60:6a:2f:e4:
        5c:2f:0b:bd
-----BEGIN CERTIFICATE-----
MIIEqjCCA5KgAwIBAgIBAjANBgkqhkiG9w0BAQUFADCBzjELMAkGA1UEBhMCWkEx
FTATBgNVBAgTDFdlc3Rlcm4gQ2FwZTESMBAGA1UEBxMJQ2FwZSBUb3duMR0wGwYD
VQQKExRUaGF3dGUgQ29uc3VsdGluZyBjYzEoMCYGA1UECxMfQ2VydGlmaWNhdGlv
biBTZXJ2aWNlcyBEaXZpc2lvbjEhMB8GA1UEAxMYVGhhd3RlIFByZW1pdW0gU2Vy
dmVyIENBMSgwJgYJKoZIhvcNAQkBFhlwcmVtaXVtLXNlcnZlckB0aGF3dGUuY29t
MB4XDTEwMDkzMDIwMjcyOVoXDTM1MDkyNDIwMjcyOVowSDELMAkGA1UEBhMCUlUx
HTAbBgNVBAoTFEthc3BlcnNreSBMYWJvcmF0b3J5MRowGAYDVQQDExF3d3cua2Fz
cGVyc2t5LmNvbTCCASIwDQYJKoZIhvcNAQEBBQADggEPADCCAQoCggEBAKpWcu/E
jJpH2W+1qJ5vGSWYgXJAHH8IMm3RkzJb7jMwAe0pCWiv/B5Ms7i5S5nZn5sqYFWv
4eRpW7OzyS4HnkkP3TXaQ8oRVNpumX7PSlkdFo9N6Q3WFOf3/QvRnpvpiRTj34nl
A1WWUoW8aZ0tuywRz2OwRjooTtDrlDL1mdmMk7ErreXPANg7gbCK4a0gWFdNOV5o
RNR8dbWK+pFtDZRiB/bjlaTqdSk8zVXpKVO/jg32/WVsFKXAgytnB+qYSAhVmZGR
eV3dD5az/iwYODcAArwHn8KjBo0d6yLwDpkFGdPg/I7MtPiDUeXcZIKm1111xr2k
1N7ftqGpDMLSzn8CAwEAAaOCARYwggESMAkGA1UdEwQCMAAwHQYDVR0OBBYEFLBW
mYF8h9A/EM+ZDm6eObQexVOwMIHlBgNVHSMEgd0wgdqhgdSkgdEwgc4xCzAJBgNV
BAYTAlpBMRUwEwYDVQQIEwxXZXN0ZXJuIENhcGUxEjAQBgNVBAcTCUNhcGUgVG93
bjEdMBsGA1UEChMUVGhhd3RlIENvbnN1bHRpbmcgY2MxKDAmBgNVBAsTH0NlcnRp
ZmljYXRpb24gU2VydmljZXMgRGl2aXNpb24xITAfBgNVBAMTGFRoYXd0ZSBQcmVt
aXVtIFNlcnZlciBDQTEoMCYGCSqGSIb3DQEJARYZcHJlbWl1bS1zZXJ2ZXJAdGhh
d3RlLmNvbYIBATANBgkqhkiG9w0BAQUFAAOCAQEAIKdvIaUKX6e1xpX+JddKSaEW
UJlHqhQQMC9Y9Ta2sN4d6GFdcEpzlYWf+gJ8zeQ6bxzNm97r5uiT65a7ckoeAqkl
BH6wNCWN5LVpIEjySXQfIJNUY7yWW6ADzKr/h/m3NJ85X3MSbzSBCJnVi6KPvc/m
cEDx8o6P5MBy6YB/8ZHvAs/DicDZjUw+OC2TPTyXMn+fVRZK/mmut0h/IhBTRcn6
ofDPrqeCOY+aWQvcRRU5sRqzMFpzodoXmy29KugE7C0BTIbfLeIQBkCXU+xlb3IZ
zkHlcU02VvtvACLmXhV1czB0VLuwE2lXupXTuf1uRDk9R1OzoExgai/kXC8LvQ==
-----END CERTIFICATE-----
