Certificate:
    Data:
        Version: 3 (0x2)
        Serial Number: 3 (0x3)
        Signature Algorithm: sha1WithRSAEncryption
        Issuer: C=NL, O=PolarSSL, CN=PolarSSL Test CA
        Validity
            Not Before: Sep 30 12:26:57 2010 GMT
            Not After : Sep 29 12:26:57 2012 GMT
        Subject: C=NL, O=PolarSSL, CN=PolarSSL Client 1
        Subject Public Key Info:
            Public Key Algorithm: rsaEncryption
            RSA Public Key: (2048 bit)
                Modulus (2048 bit):
                    00:97:0d:a6:5b:53:88:6d:cf:6b:26:94:8a:87:d7:
                    d7:03:62:58:a1:75:73:43:87:4e:e1:9b:44:56:ae:
                    5b:b9:b8:33:74:bf:55:4b:55:b7:df:33:b0:f4:bb:
                    66:be:26:bb:3c:80:bb:97:06:85:39:6e:a5:99:bd:
                    94:7b:35:3f:85:9d:13:a7:a5:8d:dc:e4:eb:c3:6b:
                    36:e8:8b:11:af:d1:1d:6b:6f:fd:8a:24:ef:eb:5c:
                    3f:c4:47:b8:19:69:5f:f9:0d:90:34:b8:13:11:9d:
                    60:d9:11:7a:62:f3:00:31:0f:09:db:63:81:a5:f0:
                    4b:b6:d8:b1:13:79:d9:49:35:96:15:9c:1f:d9:3f:
                    2e:fd:2f:94:21:de:a6:42:9d:ec:71:42:ae:4f:b1:
                    7d:42:4e:e6:5b:5b:d7:60:bb:e7:db:7f:0c:93:6f:
                    e1:8d:56:36:e4:73:df:27:ec:7f:f0:32:76:61:dc:
                    51:1e:b2:ea:04:02:7b:78:6b:4f:a1:cb:77:db:7e:
                    ac:0e:75:7d:b4:93:d6:1c:78:eb:93:68:9c:35:bf:
                    3c:f7:b2:ca:d5:7b:67:cf:a4:e4:b0:a1:97:ab:1c:
                    2d:7d:5c:ea:6b:3f:ee:60:47:c7:17:6a:a3:23:a7:
                    19:ae:f4:49:8d:52:9a:35:ff:18:eb:a2:7f:32:fd:
                    13:c5
                Exponent: 65537 (0x10001)
        X509v3 extensions:
            X509v3 Basic Constraints: 
                CA:FALSE
            X509v3 Subject Key Identifier: 
                37:EC:8C:6D:4C:5B:72:2C:35:F3:83:87:7A:6C:A4:AC:9E:BB:1D:82
            X509v3 Authority Key Identifier: 
                keyid:29:FB:13:06:D3:CF:99:CA:E1:6E:CD:A7:58:9E:D4:94:60:9D:9F:32

    Signature Algorithm: sha1WithRSAEncryption
        ac:54:b4:93:b3:e5:22:31:8c:29:e7:e5:49:3a:2b:dc:3c:df:
        87:ba:0f:ef:39:cc:3d:66:bf:e1:58:a7:5b:e3:ac:72:15:78:
        b1:c6:e2:1d:bc:95:27:f2:6f:9e:08:55:cc:22:74:4f:f9:07:
        dd:67:6f:40:e3:34:a8:68:8c:ed:e3:23:b6:89:4d:80:dc:ef:
        01:ee:2c:f9:84:11:3c:47:05:cf:e0:a7:c6:67:f8:4f:95:b0:
        e7:25:de:c8:bc:69:f0:ac:34:22:43:12:bf:7c:b8:52:ed:d1:
        b5:59:3c:f2:8a:aa:fb:5b:22:33:50:07:a9:44:25:78:e6:93:
        aa:44:71:47:63:5e:be:bf:b4:3e:d3:b2:ef:98:06:f8:a0:72:
        97:94:11:35:e1:99:c3:48:08:23:db:4b:b4:f9:4d:65:31:93:
        bf:a6:54:c4:fe:c8:ae:34:4f:c8:a3:ad:ad:8d:cc:a9:d7:c1:
        52:49:36:84:02:48:6b:01:59:d7:3c:42:f3:8a:b4:3c:6f:46:
        39:ff:33:30:91:70:2f:06:39:3a:c2:d7:a1:f9:bf:75:d8:7e:
        d0:f1:29:69:70:6c:5c:1a:15:92:42:25:9b:ac:85:ef:aa:44:
        4d:98:91:8d:a2:26:ff:91:1c:08:d1:93:22:69:4f:f6:3a:87:
        46:98:b7:94
-----BEGIN CERTIFICATE-----
MIIDPzCCAiegAwIBAgIBAzANBgkqhkiG9w0BAQUFADA7MQswCQYDVQQGEwJOTDER
MA8GA1UEChMIUG9sYXJTU0wxGTAXBgNVBAMTEFBvbGFyU1NMIFRlc3QgQ0EwHhcN
MTAwOTMwMTIyNjU3WhcNMTIwOTI5MTIyNjU3WjA8MQswCQYDVQQGEwJOTDERMA8G
A1UEChMIUG9sYXJTU0wxGjAYBgNVBAMTEVBvbGFyU1NMIENsaWVudCAxMIIBIjAN
BgkqhkiG9w0BAQEFAAOCAQ8AMIIBCgKCAQEAlw2mW1OIbc9rJpSKh9fXA2JYoXVz
Q4dO4ZtEVq5bubgzdL9VS1W33zOw9Ltmvia7PIC7lwaFOW6lmb2UezU/hZ0Tp6WN
3OTrw2s26IsRr9Eda2/9iiTv61w/xEe4GWlf+Q2QNLgTEZ1g2RF6YvMAMQ8J22OB
pfBLttixE3nZSTWWFZwf2T8u/S+UId6mQp3scUKuT7F9Qk7mW1vXYLvn238Mk2/h
jVY25HPfJ+x/8DJ2YdxRHrLqBAJ7eGtPoct3236sDnV9tJPWHHjrk2icNb8897LK
1Xtnz6TksKGXqxwtfVzqaz/uYEfHF2qjI6cZrvRJjVKaNf8Y66J/Mv0TxQIDAQAB
o00wSzAJBgNVHRMEAjAAMB0GA1UdDgQWBBQ37IxtTFtyLDXzg4d6bKSsnrsdgjAf
BgNVHSMEGDAWgBQp+xMG08+ZyuFuzadYntSUYJ2fMjANBgkqhkiG9w0BAQUFAAOC
AQEArFS0k7PlIjGMKeflSTor3Dzfh7oP7znMPWa/4VinW+OschV4scbiHbyVJ/Jv
nghVzCJ0T/kH3WdvQOM0qGiM7eMjtolNgNzvAe4s+YQRPEcFz+Cnxmf4T5Ww5yXe
yLxp8Kw0IkMSv3y4Uu3RtVk88oqq+1siM1AHqUQleOaTqkRxR2Nevr+0PtOy75gG
+KByl5QRNeGZw0gII9tLtPlNZTGTv6ZUxP7IrjRPyKOtrY3MqdfBUkk2hAJIawFZ
1zxC84q0PG9GOf8zMJFwLwY5OsLXofm/ddh+0PEpaXBsXBoVkkIlm6yF76pETZiR
jaIm/5EcCNGTImlP9jqHRpi3lA==
-----END CERTIFICATE-----
