Certificate:
    Data:
        Version: 3 (0x2)
        Serial Number: 4 (0x4)
        Signature Algorithm: sha1WithRSAEncryption
        Issuer: C=NL, O=PolarSSL, CN=PolarSSL Test CA
        Validity
            Not Before: Sep 30 12:26:57 2010 GMT
            Not After : Sep 29 12:26:57 2012 GMT
        Subject: C=NL, O=PolarSSL, CN=PolarSSL Client 2
        Subject Public Key Info:
            Public Key Algorithm: rsaEncryption
            RSA Public Key: (2048 bit)
                Modulus (2048 bit):
                    00:99:90:4a:9c:e9:92:2f:fb:21:33:b9:f7:6b:47:
                    d2:ca:80:cc:c6:3e:6b:d9:be:20:b2:0e:97:b9:cc:
                    9f:30:2d:f8:30:02:a2:10:72:b3:d4:a2:7c:28:f6:
                    8d:85:80:d7:c9:aa:94:6b:0a:75:80:4c:c8:8f:01:
                    10:0e:a8:68:86:0f:a2:2c:41:89:57:3a:7c:b4:54:
                    2c:12:2b:6f:a0:03:98:99:a8:80:f3:cd:38:f9:1f:
                    03:21:f9:cb:f3:e8:a3:ff:89:62:8a:08:61:f5:ba:
                    da:b0:dd:5f:6a:a1:61:80:60:fb:d0:38:b9:96:cb:
                    7c:bd:96:0c:a4:1d:cd:ab:ce:51:9e:69:7f:83:e5:
                    c9:eb:f6:d9:e7:33:63:98:08:c5:b2:b8:1a:eb:15:
                    7d:cd:2f:47:4e:56:d6:cd:ac:a3:d4:35:c0:bb:6c:
                    89:2b:d7:c2:97:9e:0d:12:60:95:b9:37:74:d0:e4:
                    99:5c:8a:39:b4:a3:cf:0e:2e:72:05:30:32:4d:f1:
                    7f:99:36:9e:3b:c4:b4:b4:43:f8:d9:ae:e8:8a:15:
                    6b:d0:85:a2:65:93:14:9b:c0:d5:6d:56:c9:c2:cf:
                    bd:4d:c5:ef:66:01:e0:21:88:5f:e6:fb:13:42:1a:
                    6d:76:a9:37:43:00:3e:3a:56:44:ca:fb:94:ae:8b:
                    8c:1b
                Exponent: 65537 (0x10001)
        X509v3 extensions:
            X509v3 Basic Constraints: 
                CA:FALSE
            X509v3 Subject Key Identifier: 
                4F:18:1E:9C:A6:5E:46:31:16:C7:11:89:37:E9:34:70:D0:3D:C3:3A
            X509v3 Authority Key Identifier: 
                keyid:29:FB:13:06:D3:CF:99:CA:E1:6E:CD:A7:58:9E:D4:94:60:9D:9F:32

    Signature Algorithm: sha1WithRSAEncryption
        bd:84:9a:fe:bc:f7:30:29:0c:fb:d7:de:17:be:c0:0d:d1:1a:
        e5:fd:b1:f2:03:d0:a5:10:54:2b:7b:e3:09:55:93:2a:98:3b:
        01:c7:9f:5e:4b:55:3c:14:d4:07:16:10:4e:56:66:7c:a9:6f:
        1a:ee:0d:66:d0:25:35:80:a7:5c:2a:c9:00:3d:de:54:97:84:
        13:8c:60:9a:8f:1e:16:be:d4:c6:24:05:c6:a7:eb:0a:dd:05:
        2f:3a:8d:d0:18:90:db:6e:6b:c7:b5:76:35:3d:1a:ea:33:ca:
        c3:31:05:ff:bd:74:c9:ba:e8:76:fd:64:f8:94:2c:87:8e:f0:
        5c:95:2d:fe:ff:29:16:29:21:9a:60:95:f6:1b:46:df:21:c8:
        bc:05:c0:68:ed:3b:6d:e4:58:31:32:b5:9e:aa:e7:ce:5a:10:
        b4:f6:4d:77:7f:67:c0:be:be:13:74:4c:91:62:b0:a5:f2:95:
        c8:de:4f:70:42:72:86:c0:a6:f3:cd:88:26:e7:fb:9c:d1:2e:
        ae:9c:59:3f:c6:ee:2d:38:25:bb:99:ea:9e:85:12:21:c5:d1:
        26:23:ec:de:00:a9:58:3d:1f:cd:e2:aa:ff:03:0d:f7:93:74:
        4a:8a:da:69:fb:9e:ec:b9:78:9a:d1:26:8d:42:56:b3:90:9a:
        37:78:5e:82
-----BEGIN CERTIFICATE-----
MIIDPzCCAiegAwIBAgIBBDANBgkqhkiG9w0BAQUFADA7MQswCQYDVQQGEwJOTDER
MA8GA1UEChMIUG9sYXJTU0wxGTAXBgNVBAMTEFBvbGFyU1NMIFRlc3QgQ0EwHhcN
MTAwOTMwMTIyNjU3WhcNMTIwOTI5MTIyNjU3WjA8MQswCQYDVQQGEwJOTDERMA8G
A1UEChMIUG9sYXJTU0wxGjAYBgNVBAMTEVBvbGFyU1NMIENsaWVudCAyMIIBIjAN
BgkqhkiG9w0BAQEFAAOCAQ8AMIIBCgKCAQEAmZBKnOmSL/shM7n3a0fSyoDMxj5r
2b4gsg6XucyfMC34MAKiEHKz1KJ8KPaNhYDXyaqUawp1gEzIjwEQDqhohg+iLEGJ
Vzp8tFQsEitvoAOYmaiA8804+R8DIfnL8+ij/4liighh9brasN1faqFhgGD70Di5
lst8vZYMpB3Nq85Rnml/g+XJ6/bZ5zNjmAjFsrga6xV9zS9HTlbWzayj1DXAu2yJ
K9fCl54NEmCVuTd00OSZXIo5tKPPDi5yBTAyTfF/mTaeO8S0tEP42a7oihVr0IWi
ZZMUm8DVbVbJws+9TcXvZgHgIYhf5vsTQhptdqk3QwA+OlZEyvuUrouMGwIDAQAB
o00wSzAJBgNVHRMEAjAAMB0GA1UdDgQWBBRPGB6cpl5GMRbHEYk36TRw0D3DOjAf
BgNVHSMEGDAWgBQp+xMG08+ZyuFuzadYntSUYJ2fMjANBgkqhkiG9w0BAQUFAAOC
AQEAvYSa/rz3MCkM+9feF77ADdEa5f2x8gPQpRBUK3vjCVWTKpg7AcefXktVPBTU
BxYQTlZmfKlvGu4NZtAlNYCnXCrJAD3eVJeEE4xgmo8eFr7UxiQFxqfrCt0FLzqN
0BiQ225rx7V2NT0a6jPKwzEF/710ybrodv1k+JQsh47wXJUt/v8pFikhmmCV9htG
3yHIvAXAaO07beRYMTK1nqrnzloQtPZNd39nwL6+E3RMkWKwpfKVyN5PcEJyhsCm
882IJuf7nNEurpxZP8buLTglu5nqnoUSIcXRJiPs3gCpWD0fzeKq/wMN95N0Sora
afue7Ll4mtEmjUJWs5CaN3hegg==
-----END CERTIFICATE-----
