Certificate:
    Data:
        Version: 3 (0x2)
        Serial Number: 7 (0x7)
        Signature Algorithm: sha1WithRSAEncryption
        Issuer: C=NL, O=PolarSSL, CN=PolarSSL Test CA
        Validity
            Not Before: Sep 30 12:26:57 2010 GMT
            Not After : Sep 29 12:26:57 2012 GMT
        Subject: C=NL, O=PolarSSL, CN=PolarSSL Cert SHA1
        Subject Public Key Info:
            Public Key Algorithm: rsaEncryption
            RSA Public Key: (2048 bit)
                Modulus (2048 bit):
                    00:bf:ef:c0:a2:bc:af:9b:b7:77:f7:12:be:bc:4e:
                    1b:f5:20:79:7d:40:37:ac:3a:b0:fd:49:a3:86:f3:
                    fc:7b:14:fb:a5:6e:84:71:0e:7f:1a:32:44:75:e6:
                    99:ed:13:d6:5c:bb:12:f3:2f:e0:0d:0d:c7:67:7a:
                    81:51:53:91:d3:9f:d2:61:ab:b0:bd:de:04:22:25:
                    d7:fb:71:86:f0:ff:18:dc:ad:b7:6d:0e:5e:ac:a2:
                    4e:78:4d:2d:5e:9c:4c:7a:7a:fe:d2:d6:b9:2f:e6:
                    db:da:6d:10:79:ca:58:8a:9e:02:b0:c8:18:83:c4:
                    9c:50:6f:af:b9:92:a5:38:4b:b3:dd:ef:d8:ec:a3:
                    ef:e2:ea:39:85:a6:3c:2d:64:8e:c8:24:13:90:c9:
                    ca:23:f1:03:e7:14:ca:da:99:fb:13:f3:04:20:31:
                    06:42:5d:fc:9e:4f:de:af:d1:75:73:27:1d:01:9e:
                    6d:58:e5:b7:01:bd:76:26:84:e0:9e:f2:db:1a:80:
                    17:b4:63:2e:8a:1e:69:0c:84:7b:73:95:43:85:d3:
                    56:6b:5a:b7:fc:4a:7b:f8:c1:59:f1:7c:dd:3b:62:
                    62:22:8d:10:ad:2a:f0:69:a9:e0:b9:f4:0d:9e:26:
                    05:09:5a:12:24:6b:20:be:ef:e4:ee:0c:a8:3e:49:
                    69:4b
                Exponent: 65537 (0x10001)
        X509v3 extensions:
            X509v3 Basic Constraints: 
                CA:FALSE
            X509v3 Subject Key Identifier: 
                59:57:9D:AF:64:3F:CF:CD:2C:96:58:08:7E:04:60:58:A5:1E:37:E6
            X509v3 Authority Key Identifier: 
                keyid:29:FB:13:06:D3:CF:99:CA:E1:6E:CD:A7:58:9E:D4:94:60:9D:9F:32

    Signature Algorithm: sha1WithRSAEncryption
        27:e4:5a:cd:5f:38:3c:f5:19:57:60:9a:85:8f:57:13:35:eb:
        2e:86:bd:78:99:49:bc:30:62:4b:cd:ba:60:e7:3b:fb:6c:7b:
        04:6b:76:8a:a9:7a:4e:5f:df:b0:5c:6c:a5:a5:3f:96:fb:7e:
        88:cd:4f:6b:6e:8f:70:ec:21:a3:97:82:5b:57:f2:5c:de:ad:
        bb:a6:99:62:34:10:87:ec:98:bd:68:44:00:11:4c:dd:13:8f:
        3d:57:e7:ec:eb:7d:6e:3a:0d:a4:57:a4:07:0b:3c:99:b5:8f:
        04:fb:92:c4:26:30:19:6f:e1:5e:3b:8c:d0:c5:24:c7:d7:ce:
        26:fb:36:62:a0:5b:1e:26:40:61:42:2b:41:2a:5a:29:e3:5d:
        df:b4:7a:22:3b:d3:9c:da:9b:77:84:18:0f:2b:76:fc:14:ef:
        3f:e8:39:b9:01:61:bd:14:97:b1:85:85:5e:20:07:0b:09:e9:
        a7:3c:4e:3b:c1:5c:25:fd:3e:a0:d5:6f:f0:0e:30:a4:99:cb:
        fc:0b:85:33:52:ca:49:8c:9f:8f:49:73:43:9d:99:f2:28:2d:
        fd:81:cd:41:88:70:f9:0c:bb:01:5c:27:89:a9:9c:81:89:21:
        f2:61:04:1d:d9:98:1c:67:2e:bd:34:7c:55:f9:37:69:bb:9e:
        a5:15:75:03
-----BEGIN CERTIFICATE-----
MIIDQDCCAiigAwIBAgIBBzANBgkqhkiG9w0BAQUFADA7MQswCQYDVQQGEwJOTDER
MA8GA1UEChMIUG9sYXJTU0wxGTAXBgNVBAMTEFBvbGFyU1NMIFRlc3QgQ0EwHhcN
MTAwOTMwMTIyNjU3WhcNMTIwOTI5MTIyNjU3WjA9MQswCQYDVQQGEwJOTDERMA8G
A1UEChMIUG9sYXJTU0wxGzAZBgNVBAMTElBvbGFyU1NMIENlcnQgU0hBMTCCASIw
DQYJKoZIhvcNAQEBBQADggEPADCCAQoCggEBAL/vwKK8r5u3d/cSvrxOG/UgeX1A
N6w6sP1Jo4bz/HsU+6VuhHEOfxoyRHXmme0T1ly7EvMv4A0Nx2d6gVFTkdOf0mGr
sL3eBCIl1/txhvD/GNytt20OXqyiTnhNLV6cTHp6/tLWuS/m29ptEHnKWIqeArDI
GIPEnFBvr7mSpThLs93v2Oyj7+LqOYWmPC1kjsgkE5DJyiPxA+cUytqZ+xPzBCAx
BkJd/J5P3q/RdXMnHQGebVjltwG9diaE4J7y2xqAF7RjLooeaQyEe3OVQ4XTVmta
t/xKe/jBWfF83TtiYiKNEK0q8Gmp4Ln0DZ4mBQlaEiRrIL7v5O4MqD5JaUsCAwEA
AaNNMEswCQYDVR0TBAIwADAdBgNVHQ4EFgQUWVedr2Q/z80sllgIfgRgWKUeN+Yw
HwYDVR0jBBgwFoAUKfsTBtPPmcrhbs2nWJ7UlGCdnzIwDQYJKoZIhvcNAQEFBQAD
ggEBACfkWs1fODz1GVdgmoWPVxM16y6GvXiZSbwwYkvNumDnO/tsewRrdoqpek5f
37BcbKWlP5b7fojNT2tuj3DsIaOXgltX8lzerbummWI0EIfsmL1oRAARTN0Tjz1X
5+zrfW46DaRXpAcLPJm1jwT7ksQmMBlv4V47jNDFJMfXzib7NmKgWx4mQGFCK0Eq
WinjXd+0eiI705zam3eEGA8rdvwU7z/oObkBYb0Ul7GFhV4gBwsJ6ac8TjvBXCX9
PqDVb/AOMKSZy/wLhTNSykmMn49Jc0OdmfIoLf2BzUGIcPkMuwFcJ4mpnIGJIfJh
BB3ZmBxnLr00fFX5N2m7nqUVdQM=
-----END CERTIFICATE-----
